EXPORTS
	_ZN13CRsfwMountMan14AddMountEntryLEP15CRsfwMountEntry @ 1 NONAME
	_ZN13CRsfwMountMan15EditMountEntryLEP15CRsfwMountEntry @ 2 NONAME
	_ZN13CRsfwMountMan16RefreshDirectoryERK7TDesC16 @ 3 NONAME
	_ZN13CRsfwMountMan17DeleteMountEntryLE5TChar @ 4 NONAME
	_ZN13CRsfwMountMan17DeleteMountEntryLERK7TDesC16 @ 5 NONAME
	_ZN13CRsfwMountMan23SetMountConnectionStateE5TCharj @ 6 NONAME
	_ZN13CRsfwMountMan4NewLEjP21MRsfwMountManObserver @ 7 NONAME
	_ZN13CRsfwMountManD0Ev @ 8 NONAME
	_ZN13CRsfwMountManD1Ev @ 9 NONAME
	_ZN13CRsfwMountManD2Ev @ 10 NONAME
	_ZNK13CRsfwMountMan11MountEntryLE5TChar @ 11 NONAME
	_ZNK13CRsfwMountMan11MountEntryLERK7TDesC16 @ 12 NONAME
	_ZNK13CRsfwMountMan12GetMountInfoE5TCharR14TRsfwMountInfo @ 13 NONAME
	_ZNK13CRsfwMountMan13GetAllDrivesLER5TBuf8ILi26EE @ 14 NONAME
	_ZNK13CRsfwMountMan14GetMountNamesLEP12CDesC16Array @ 15 NONAME
	_ZNK13CRsfwMountMan16IsAppOnBlackListE4TUid @ 16 NONAME
	_ZNK13CRsfwMountMan19GetRemoteMountListLER5TBuf8ILi26EE @ 17 NONAME
	_ZTI13CRsfwMountMan @ 18 NONAME ; #<TI>#
	_ZTI17CRsfwMountManImpl @ 19 NONAME ; #<TI>#
	_ZTV13CRsfwMountMan @ 20 NONAME ; #<VT>#
	_ZTV17CRsfwMountManImpl @ 21 NONAME ; #<VT>#
	_ZN13CRsfwMountMan20CancelRemoteTransferERK7TDesC16 @ 22 NONAME
	_ZN16TRsfwMountConfig12InternalizeLER11RReadStream @ 23 NONAME
	_ZNK16TRsfwMountConfig12ExternalizeLER12RWriteStream @ 24 NONAME
	_ZN15CRsfwMountEntry4NewLEv @ 25 NONAME
	_ZN15CRsfwMountEntry5ClearEv @ 26 NONAME
	_ZN15CRsfwMountEntry5NewLCEv @ 27 NONAME
	_ZN15CRsfwMountEntry8SetItemLEiRK6TDesC8 @ 28 NONAME
	_ZN15CRsfwMountEntry8SetItemLEiRK7TDesC16 @ 29 NONAME
	_ZN15CRsfwMountEntry9SetEntryLEiRK7TDesC165TCharS2_S2_S2_S2_ @ 30 NONAME
	_ZN15CRsfwMountEntryD0Ev @ 31 NONAME
	_ZN15CRsfwMountEntryD1Ev @ 32 NONAME
	_ZN15CRsfwMountEntryD2Ev @ 33 NONAME
	_ZNK15CRsfwMountEntry4ItemEi @ 34 NONAME
	_ZNK15CRsfwMountEntry6CloneLEv @ 35 NONAME
	_ZTI15CRsfwMountEntry @ 36 NONAME ; #<TI>#
	_ZTV15CRsfwMountEntry @ 37 NONAME ; #<VT>#
	_ZN13CRsfwMountMan28SetMountConnectionStateBlindE5TCharj @ 38 NONAME

