EXPORTS
	??1CRsfwConnectionManager@@UAE@XZ @ 1 NONAME ; CRsfwConnectionManager::~CRsfwConnectionManager(void)
	??1CRsfwDirEnt@@UAE@XZ @ 2 NONAME ; CRsfwDirEnt::~CRsfwDirEnt(void)
	??1CRsfwDirEntAttr@@UAE@XZ @ 3 NONAME ; CRsfwDirEntAttr::~CRsfwDirEntAttr(void)
	??1CRsfwRemoteAccess@@UAE@XZ @ 4 NONAME ; CRsfwRemoteAccess::~CRsfwRemoteAccess(void)
	?Att@CRsfwDirEntAttr@@QBEIXZ @ 5 NONAME ; unsigned int CRsfwDirEntAttr::Att(void) const
	?Attr@CRsfwDirEnt@@QBEPAVCRsfwDirEntAttr@@XZ @ 6 NONAME ; class CRsfwDirEntAttr * CRsfwDirEnt::Attr(void) const
	?ETag@CRsfwDirEntAttr@@QBEPBVTDesC8@@XZ @ 7 NONAME ; class TDesC8 const * CRsfwDirEntAttr::ETag(void) const
	?ExtractAttr@CRsfwDirEnt@@QAEPAVCRsfwDirEntAttr@@XZ @ 8 NONAME ; class CRsfwDirEntAttr * CRsfwDirEnt::ExtractAttr(void)
	?GetConnection@CRsfwConnectionManager@@QAEHAAPAVRSocketServ@@AAPAVRConnection@@@Z @ 9 NONAME ; int CRsfwConnectionManager::GetConnection(class RSocketServ * &, class RConnection * &)
	?GetName@CRsfwDirEnt@@QBEXAAVTDes16@@@Z @ 10 NONAME ; void CRsfwDirEnt::GetName(class TDes16 &) const
	?GetName@CRsfwDirEnt@@QBEXAAVTDes8@@@Z @ 11 NONAME ; void CRsfwDirEnt::GetName(class TDes8 &) const
	?GetQuotaAndSizeL@CRsfwRemoteAccess@@UAEHAAH0@Z @ 12 NONAME ; int CRsfwRemoteAccess::GetQuotaAndSizeL(int &, int &)
	?MimeType@CRsfwDirEntAttr@@QBEPBVTDesC8@@XZ @ 13 NONAME ; class TDesC8 const * CRsfwDirEntAttr::MimeType(void) const
	?Modified@CRsfwDirEntAttr@@QBE?AVTTime@@XZ @ 14 NONAME ; class TTime CRsfwDirEntAttr::Modified(void) const
	?Name@CRsfwDirEnt@@QBEPBVHBufC16@@XZ @ 15 NONAME ; class HBufC16 const * CRsfwDirEnt::Name(void) const
	?NewL@CRsfwConnectionManager@@SAPAV1@PAVMRsfwConnectionObserver@@@Z @ 16 NONAME ; class CRsfwConnectionManager * CRsfwConnectionManager::NewL(class MRsfwConnectionObserver *)
	?NewL@CRsfwDirEnt@@SAPAV1@ABVTDesC16@@PAVCRsfwDirEntAttr@@@Z @ 17 NONAME ; class CRsfwDirEnt * CRsfwDirEnt::NewL(class TDesC16 const &, class CRsfwDirEntAttr *)
	?NewL@CRsfwDirEnt@@SAPAV1@ABVTDesC8@@PAVCRsfwDirEntAttr@@@Z @ 18 NONAME ; class CRsfwDirEnt * CRsfwDirEnt::NewL(class TDesC8 const &, class CRsfwDirEntAttr *)
	?NewL@CRsfwDirEntAttr@@SAPAV1@XZ @ 19 NONAME ; class CRsfwDirEntAttr * CRsfwDirEntAttr::NewL(void)
	?NewL@CRsfwRemoteAccess@@SAPAV1@ABVTDesC8@@@Z @ 20 NONAME ; class CRsfwRemoteAccess * CRsfwRemoteAccess::NewL(class TDesC8 const &)
	?NewLC@CRsfwDirEnt@@SAPAV1@ABVTDesC16@@PAVCRsfwDirEntAttr@@@Z @ 21 NONAME ; class CRsfwDirEnt * CRsfwDirEnt::NewLC(class TDesC16 const &, class CRsfwDirEntAttr *)
	?NewLC@CRsfwDirEnt@@SAPAV1@ABVTDesC8@@PAVCRsfwDirEntAttr@@@Z @ 22 NONAME ; class CRsfwDirEnt * CRsfwDirEnt::NewLC(class TDesC8 const &, class CRsfwDirEntAttr *)
	?NewLC@CRsfwDirEntAttr@@SAPAV1@XZ @ 23 NONAME ; class CRsfwDirEntAttr * CRsfwDirEntAttr::NewLC(void)
	?ResetAttFlags@CRsfwDirEntAttr@@QAEXI@Z @ 24 NONAME ; void CRsfwDirEntAttr::ResetAttFlags(unsigned int)
	?SetAtt@CRsfwDirEntAttr@@QAEXI@Z @ 25 NONAME ; void CRsfwDirEntAttr::SetAtt(unsigned int)
	?SetAttFlags@CRsfwDirEntAttr@@QAEXI@Z @ 26 NONAME ; void CRsfwDirEntAttr::SetAttFlags(unsigned int)
	?SetAttrL@CRsfwDirEnt@@QAEXPAVCRsfwDirEntAttr@@@Z @ 27 NONAME ; void CRsfwDirEnt::SetAttrL(class CRsfwDirEntAttr *)
	?SetETagL@CRsfwDirEntAttr@@QAEXABVTDesC8@@@Z @ 28 NONAME ; void CRsfwDirEntAttr::SetETagL(class TDesC8 const &)
	?SetMimeTypeL@CRsfwDirEntAttr@@QAEXABVTDesC8@@@Z @ 29 NONAME ; void CRsfwDirEntAttr::SetMimeTypeL(class TDesC8 const &)
	?SetModified@CRsfwDirEntAttr@@QAEXABVTTime@@@Z @ 30 NONAME ; void CRsfwDirEntAttr::SetModified(class TTime const &)
	?SetNameL@CRsfwDirEnt@@QAEXABVTDesC16@@@Z @ 31 NONAME ; void CRsfwDirEnt::SetNameL(class TDesC16 const &)
	?SetNameL@CRsfwDirEnt@@QAEXABVTDesC8@@@Z @ 32 NONAME ; void CRsfwDirEnt::SetNameL(class TDesC8 const &)
	?SetSize@CRsfwDirEntAttr@@QAEXH@Z @ 33 NONAME ; void CRsfwDirEntAttr::SetSize(int)
	?SetStringValueL@CRsfwDirEntAttr@@QAEXHABVTDesC8@@@Z @ 34 NONAME ; void CRsfwDirEntAttr::SetStringValueL(int, class TDesC8 const &)
	?SetUid@CRsfwDirEntAttr@@QAEXVTUid@@@Z @ 35 NONAME ; void CRsfwDirEntAttr::SetUid(class TUid)
	?Size@CRsfwDirEntAttr@@QBEHXZ @ 36 NONAME ; int CRsfwDirEntAttr::Size(void) const
	?StringValue@CRsfwDirEntAttr@@QBEPBVTDesC8@@H@Z @ 37 NONAME ; class TDesC8 const * CRsfwDirEntAttr::StringValue(int) const
	?Uid@CRsfwDirEntAttr@@QAEABVTUid@@XZ @ 38 NONAME ; class TUid const & CRsfwDirEntAttr::Uid(void)
	?UseIapL@CRsfwConnectionManager@@QAEXABVTDesC16@@@Z @ 39 NONAME ; void CRsfwConnectionManager::UseIapL(class TDesC16 const &)

